target datalayout = "e-m:e-p270:32:32-p271:32:32-p272:64:64-i64:64-i128:128-f80:128-n8:16:32:64-S128"
target triple = "x86_64-pc-linux-gnu"

%struct._cms_interp_struc = type { ptr, i32, i32, i32, [15 x i32], [15 x i32], [15 x i32], ptr, %union.cmsInterpFunction }
%union.cmsInterpFunction = type { ptr }
%struct.Prelin8Data = type { ptr, ptr, [256 x i16], [256 x i16], [256 x i16], [256 x i32], [256 x i32], [256 x i32] }

; Function Attrs: nounwind uwtable
define internal i32 @_cmsToFixedDomain(i32 noundef %0) #0 {
  %2 = alloca i32, align 4
  store i32 %0, ptr %2, align 4
  %3 = load i32, ptr %2, align 4
  %4 = load i32, ptr %2, align 4
  %5 = add nsw i32 %4, 32767
  %6 = sdiv i32 %5, 65535
  %7 = add nsw i32 %3, %6
  ret i32 %7
}

; Function Attrs: nounwind uwtable
define internal ptr @PrelinOpt8alloc(ptr noundef %0, ptr noundef %1, ptr noundef %2) #0 {
  %4 = alloca ptr, align 8
  %5 = alloca ptr, align 8
  %6 = alloca ptr, align 8
  %7 = alloca ptr, align 8
  %8 = alloca i32, align 4
  %9 = alloca [3 x i16], align 2
  %10 = alloca i32, align 4
  %11 = alloca i32, align 4
  %12 = alloca i32, align 4
  %13 = alloca ptr, align 8
  store ptr %0, ptr %5, align 8
  store ptr %1, ptr %6, align 8
  store ptr %2, ptr %7, align 8
  %14 = load ptr, ptr %5, align 8
  %15 = call ptr @_cmsMallocZero(ptr noundef %14, i32 noundef 4624)
  store ptr %15, ptr %13, align 8
  %16 = load ptr, ptr %13, align 8
  %17 = icmp eq ptr %16, null
  br i1 %17, label %18, label %19

18:                                               ; preds = %3
  store ptr null, ptr %4, align 8
  br label %187

19:                                               ; preds = %3
  store i32 0, ptr %8, align 4
  br label %20

20:                                               ; preds = %176, %19
  %21 = load i32, ptr %8, align 4
  %22 = icmp slt i32 %21, 256
  br i1 %22, label %23, label %179

23:                                               ; preds = %20
  %24 = load ptr, ptr %7, align 8
  %25 = icmp ne ptr %24, null
  br i1 %25, label %26, label %63

26:                                               ; preds = %23
  %27 = load ptr, ptr %7, align 8
  %28 = getelementptr inbounds ptr, ptr %27, i64 0
  %29 = load ptr, ptr %28, align 8
  %30 = load i32, ptr %8, align 4
  %31 = trunc i32 %30 to i16
  %32 = zext i16 %31 to i32
  %33 = shl i32 %32, 8
  %34 = load i32, ptr %8, align 4
  %35 = or i32 %33, %34
  %36 = trunc i32 %35 to i16
  %37 = call zeroext i16 @cmsEvalToneCurve16(ptr noundef %29, i16 noundef zeroext %36)
  %38 = getelementptr inbounds [3 x i16], ptr %9, i64 0, i64 0
  store i16 %37, ptr %38, align 2
  %39 = load ptr, ptr %7, align 8
  %40 = getelementptr inbounds ptr, ptr %39, i64 1
  %41 = load ptr, ptr %40, align 8
  %42 = load i32, ptr %8, align 4
  %43 = trunc i32 %42 to i16
  %44 = zext i16 %43 to i32
  %45 = shl i32 %44, 8
  %46 = load i32, ptr %8, align 4
  %47 = or i32 %45, %46
  %48 = trunc i32 %47 to i16
  %49 = call zeroext i16 @cmsEvalToneCurve16(ptr noundef %41, i16 noundef zeroext %48)
  %50 = getelementptr inbounds [3 x i16], ptr %9, i64 0, i64 1
  store i16 %49, ptr %50, align 2
  %51 = load ptr, ptr %7, align 8
  %52 = getelementptr inbounds ptr, ptr %51, i64 2
  %53 = load ptr, ptr %52, align 8
  %54 = load i32, ptr %8, align 4
  %55 = trunc i32 %54 to i16
  %56 = zext i16 %55 to i32
  %57 = shl i32 %56, 8
  %58 = load i32, ptr %8, align 4
  %59 = or i32 %57, %58
  %60 = trunc i32 %59 to i16
  %61 = call zeroext i16 @cmsEvalToneCurve16(ptr noundef %53, i16 noundef zeroext %60)
  %62 = getelementptr inbounds [3 x i16], ptr %9, i64 0, i64 2
  store i16 %61, ptr %62, align 2
  br label %88

63:                                               ; preds = %23
  %64 = load i32, ptr %8, align 4
  %65 = trunc i32 %64 to i16
  %66 = zext i16 %65 to i32
  %67 = shl i32 %66, 8
  %68 = load i32, ptr %8, align 4
  %69 = or i32 %67, %68
  %70 = trunc i32 %69 to i16
  %71 = getelementptr inbounds [3 x i16], ptr %9, i64 0, i64 0
  store i16 %70, ptr %71, align 2
  %72 = load i32, ptr %8, align 4
  %73 = trunc i32 %72 to i16
  %74 = zext i16 %73 to i32
  %75 = shl i32 %74, 8
  %76 = load i32, ptr %8, align 4
  %77 = or i32 %75, %76
  %78 = trunc i32 %77 to i16
  %79 = getelementptr inbounds [3 x i16], ptr %9, i64 0, i64 1
  store i16 %78, ptr %79, align 2
  %80 = load i32, ptr %8, align 4
  %81 = trunc i32 %80 to i16
  %82 = zext i16 %81 to i32
  %83 = shl i32 %82, 8
  %84 = load i32, ptr %8, align 4
  %85 = or i32 %83, %84
  %86 = trunc i32 %85 to i16
  %87 = getelementptr inbounds [3 x i16], ptr %9, i64 0, i64 2
  store i16 %86, ptr %87, align 2
  br label %88

88:                                               ; preds = %63, %26
  %89 = getelementptr inbounds [3 x i16], ptr %9, i64 0, i64 0
  %90 = load i16, ptr %89, align 2
  %91 = zext i16 %90 to i32
  %92 = load ptr, ptr %6, align 8
  %93 = getelementptr inbounds %struct._cms_interp_struc, ptr %92, i32 0, i32 5
  %94 = getelementptr inbounds [15 x i32], ptr %93, i64 0, i64 0
  %95 = load i32, ptr %94, align 8
  %96 = mul i32 %91, %95
  %97 = call i32 @_cmsToFixedDomain(i32 noundef %96)
  store i32 %97, ptr %10, align 4
  %98 = getelementptr inbounds [3 x i16], ptr %9, i64 0, i64 1
  %99 = load i16, ptr %98, align 2
  %100 = zext i16 %99 to i32
  %101 = load ptr, ptr %6, align 8
  %102 = getelementptr inbounds %struct._cms_interp_struc, ptr %101, i32 0, i32 5
  %103 = getelementptr inbounds [15 x i32], ptr %102, i64 0, i64 1
  %104 = load i32, ptr %103, align 4
  %105 = mul i32 %100, %104
  %106 = call i32 @_cmsToFixedDomain(i32 noundef %105)
  store i32 %106, ptr %11, align 4
  %107 = getelementptr inbounds [3 x i16], ptr %9, i64 0, i64 2
  %108 = load i16, ptr %107, align 2
  %109 = zext i16 %108 to i32
  %110 = load ptr, ptr %6, align 8
  %111 = getelementptr inbounds %struct._cms_interp_struc, ptr %110, i32 0, i32 5
  %112 = getelementptr inbounds [15 x i32], ptr %111, i64 0, i64 2
  %113 = load i32, ptr %112, align 8
  %114 = mul i32 %109, %113
  %115 = call i32 @_cmsToFixedDomain(i32 noundef %114)
  store i32 %115, ptr %12, align 4
  %116 = load ptr, ptr %6, align 8
  %117 = getelementptr inbounds %struct._cms_interp_struc, ptr %116, i32 0, i32 6
  %118 = getelementptr inbounds [15 x i32], ptr %117, i64 0, i64 2
  %119 = load i32, ptr %118, align 4
  %120 = load i32, ptr %10, align 4
  %121 = ashr i32 %120, 16
  %122 = mul i32 %119, %121
  %123 = load ptr, ptr %13, align 8
  %124 = getelementptr inbounds %struct.Prelin8Data, ptr %123, i32 0, i32 5
  %125 = load i32, ptr %8, align 4
  %126 = sext i32 %125 to i64
  %127 = getelementptr inbounds [256 x i32], ptr %124, i64 0, i64 %126
  store i32 %122, ptr %127, align 4
  %128 = load ptr, ptr %6, align 8
  %129 = getelementptr inbounds %struct._cms_interp_struc, ptr %128, i32 0, i32 6
  %130 = getelementptr inbounds [15 x i32], ptr %129, i64 0, i64 1
  %131 = load i32, ptr %130, align 4
  %132 = load i32, ptr %11, align 4
  %133 = ashr i32 %132, 16
  %134 = mul i32 %131, %133
  %135 = load ptr, ptr %13, align 8
  %136 = getelementptr inbounds %struct.Prelin8Data, ptr %135, i32 0, i32 6
  %137 = load i32, ptr %8, align 4
  %138 = sext i32 %137 to i64
  %139 = getelementptr inbounds [256 x i32], ptr %136, i64 0, i64 %138
  store i32 %134, ptr %139, align 4
  %140 = load ptr, ptr %6, align 8
  %141 = getelementptr inbounds %struct._cms_interp_struc, ptr %140, i32 0, i32 6
  %142 = getelementptr inbounds [15 x i32], ptr %141, i64 0, i64 0
  %143 = load i32, ptr %142, align 4
  %144 = load i32, ptr %12, align 4
  %145 = ashr i32 %144, 16
  %146 = mul i32 %143, %145
  %147 = load ptr, ptr %13, align 8
  %148 = getelementptr inbounds %struct.Prelin8Data, ptr %147, i32 0, i32 7
  %149 = load i32, ptr %8, align 4
  %150 = sext i32 %149 to i64
  %151 = getelementptr inbounds [256 x i32], ptr %148, i64 0, i64 %150
  store i32 %146, ptr %151, align 4
  %152 = load i32, ptr %10, align 4
  %153 = and i32 %152, 65535
  %154 = trunc i32 %153 to i16
  %155 = load ptr, ptr %13, align 8
  %156 = getelementptr inbounds %struct.Prelin8Data, ptr %155, i32 0, i32 2
  %157 = load i32, ptr %8, align 4
  %158 = sext i32 %157 to i64
  %159 = getelementptr inbounds [256 x i16], ptr %156, i64 0, i64 %158
  store i16 %154, ptr %159, align 2
  %160 = load i32, ptr %11, align 4
  %161 = and i32 %160, 65535
  %162 = trunc i32 %161 to i16
  %163 = load ptr, ptr %13, align 8
  %164 = getelementptr inbounds %struct.Prelin8Data, ptr %163, i32 0, i32 3
  %165 = load i32, ptr %8, align 4
  %166 = sext i32 %165 to i64
  %167 = getelementptr inbounds [256 x i16], ptr %164, i64 0, i64 %166
  store i16 %162, ptr %167, align 2
  %168 = load i32, ptr %12, align 4
  %169 = and i32 %168, 65535
  %170 = trunc i32 %169 to i16
  %171 = load ptr, ptr %13, align 8
  %172 = getelementptr inbounds %struct.Prelin8Data, ptr %171, i32 0, i32 4
  %173 = load i32, ptr %8, align 4
  %174 = sext i32 %173 to i64
  %175 = getelementptr inbounds [256 x i16], ptr %172, i64 0, i64 %174
  store i16 %170, ptr %175, align 2
  br label %176

176:                                              ; preds = %88
  %177 = load i32, ptr %8, align 4
  %178 = add nsw i32 %177, 1
  store i32 %178, ptr %8, align 4
  br label %20, !llvm.loop !64

179:                                              ; preds = %20
  %180 = load ptr, ptr %5, align 8
  %181 = load ptr, ptr %13, align 8
  %182 = getelementptr inbounds %struct.Prelin8Data, ptr %181, i32 0, i32 0
  store ptr %180, ptr %182, align 8
  %183 = load ptr, ptr %6, align 8
  %184 = load ptr, ptr %13, align 8
  %185 = getelementptr inbounds %struct.Prelin8Data, ptr %184, i32 0, i32 1
  store ptr %183, ptr %185, align 8
  %186 = load ptr, ptr %13, align 8
  store ptr %186, ptr %4, align 8
  br label %187

187:                                              ; preds = %179, %18
  %188 = load ptr, ptr %4, align 8
  ret ptr %188
}