; Function Attrs: nounwind uwtable
define internal fastcc ptr @PrelinOpt8alloc(ptr noundef %0, ptr noundef %1, ptr noundef readonly %2) unnamed_addr #0 {
  %4 = tail call ptr @_cmsMallocZero(ptr noundef %0, i32 noundef 4624) #10
  %5 = icmp eq ptr %4, null
  br i1 %5, label %72, label %.preheader

.preheader:                                       ; preds = %3
  %.not = icmp eq ptr %2, null
  %6 = getelementptr inbounds i8, ptr %2, i64 8
  %7 = getelementptr inbounds i8, ptr %2, i64 16
  %8 = getelementptr inbounds i8, ptr %1, i64 80
  %9 = getelementptr inbounds i8, ptr %1, i64 84
  %10 = getelementptr inbounds i8, ptr %1, i64 88
  %11 = getelementptr inbounds i8, ptr %1, i64 140
  %12 = getelementptr inbounds i8, ptr %1, i64 148
  %13 = getelementptr inbounds i8, ptr %4, i64 1552
  %14 = getelementptr inbounds i8, ptr %1, i64 144
  %15 = getelementptr inbounds i8, ptr %4, i64 2576
  %16 = getelementptr inbounds i8, ptr %4, i64 3600
  %17 = getelementptr inbounds i8, ptr %4, i64 16
  %18 = getelementptr inbounds i8, ptr %4, i64 528
  %19 = getelementptr inbounds i8, ptr %4, i64 1040
  br label %20

20:                                               ; preds = %.preheader, %33
  %indvars.iv = phi i64 [ 0, %.preheader ], [ %indvars.iv.next, %33 ]
  br i1 %.not, label %30, label %21

21:                                               ; preds = %20
  %22 = load ptr, ptr %2, align 8
  %23 = trunc i64 %indvars.iv to i16
  %24 = mul i16 %23, 257
  %25 = tail call zeroext i16 @cmsEvalToneCurve16(ptr noundef %22, i16 noundef zeroext %24) #10
  %26 = load ptr, ptr %6, align 8
  %27 = tail call zeroext i16 @cmsEvalToneCurve16(ptr noundef %26, i16 noundef zeroext %24) #10
  %28 = load ptr, ptr %7, align 8
  %29 = tail call zeroext i16 @cmsEvalToneCurve16(ptr noundef %28, i16 noundef zeroext %24) #10
  br label %33

30:                                               ; preds = %20
  %31 = trunc i64 %indvars.iv to i16
  %32 = mul i16 %31, 257
  br label %33

33:                                               ; preds = %30, %21
  %.sroa.0.0 = phi i16 [ %25, %21 ], [ %32, %30 ]
  %.sroa.3.0 = phi i16 [ %27, %21 ], [ %32, %30 ]
  %.sroa.6.0 = phi i16 [ %29, %21 ], [ %32, %30 ]
  %34 = zext i16 %.sroa.0.0 to i32
  %35 = load i32, ptr %8, align 8
  %36 = mul i32 %35, %34
  %37 = add nsw i32 %36, 32767
  %38 = sdiv i32 %37, 65535
  %39 = add nsw i32 %38, %36
  %40 = zext i16 %.sroa.3.0 to i32
  %41 = load i32, ptr %9, align 4
  %42 = mul i32 %41, %40
  %43 = add nsw i32 %42, 32767
  %44 = sdiv i32 %43, 65535
  %45 = add nsw i32 %44, %42
  %46 = zext i16 %.sroa.6.0 to i32
  %47 = load i32, ptr %10, align 8
  %48 = mul i32 %47, %46
  %49 = add nsw i32 %48, 32767
  %50 = sdiv i32 %49, 65535
  %51 = add nsw i32 %50, %48
  %52 = load i32, ptr %12, align 4
  %53 = ashr i32 %39, 16
  %54 = mul i32 %53, %52
  %55 = getelementptr inbounds [256 x i32], ptr %13, i64 0, i64 %indvars.iv
  store i32 %54, ptr %55, align 4
  %56 = load i32, ptr %14, align 4
  %57 = ashr i32 %45, 16
  %58 = mul i32 %57, %56
  %59 = getelementptr inbounds [256 x i32], ptr %15, i64 0, i64 %indvars.iv
  store i32 %58, ptr %59, align 4
  %60 = load i32, ptr %11, align 4
  %61 = ashr i32 %51, 16
  %62 = mul i32 %60, %61
  %63 = getelementptr inbounds [256 x i32], ptr %16, i64 0, i64 %indvars.iv
  store i32 %62, ptr %63, align 4
  %64 = trunc i32 %39 to i16
  %65 = getelementptr inbounds [256 x i16], ptr %17, i64 0, i64 %indvars.iv
  store i16 %64, ptr %65, align 2
  %66 = trunc i32 %45 to i16
  %67 = getelementptr inbounds [256 x i16], ptr %18, i64 0, i64 %indvars.iv
  store i16 %66, ptr %67, align 2
  %68 = trunc i32 %51 to i16
  %69 = getelementptr inbounds [256 x i16], ptr %19, i64 0, i64 %indvars.iv
  store i16 %68, ptr %69, align 2
  %indvars.iv.next = add nuw nsw i64 %indvars.iv, 1
  %exitcond.not = icmp eq i64 %indvars.iv.next, 256
  br i1 %exitcond.not, label %70, label %20, !llvm.loop !63

70:                                               ; preds = %33
  store ptr %0, ptr %4, align 8
  %71 = getelementptr inbounds i8, ptr %4, i64 8
  store ptr %1, ptr %71, align 8
  br label %72

72:                                               ; preds = %3, %70
  ret ptr %4
}